; Function Attrs: mustprogress uwtable
define void @_ZNK5faiss13ZnSphereCodec6decodeEmPf(ptr noundef nonnull readonly align 8 captures(none) dereferenceable(104) %0, i64 noundef %1, ptr noundef captures(none) %2) unnamed_addr #0 align 2 {
  %4 = getelementptr inbounds nuw i8, ptr %0, i64 32
  %5 = load i32, ptr %4, align 8, !tbaa !4
  %6 = icmp sgt i32 %5, 1
  %7 = getelementptr inbounds nuw i8, ptr %0, i64 64
  %8 = load ptr, ptr %7, align 8, !tbaa !15
  br i1 %6, label %.lr.ph, label %._crit_edge

.lr.ph:                                           ; preds = %3, %.lr.ph
  %.02936 = phi i32 [ %.029., %.lr.ph ], [ 0, %3 ]
  %.03135 = phi i32 [ %..031, %.lr.ph ], [ %5, %3 ]
  %9 = add nuw nsw i32 %.02936, %.03135
  %10 = lshr i32 %9, 1
  %11 = zext nneg i32 %10 to i64
  %12 = getelementptr inbounds nuw %"struct.faiss::ZnSphereCodec::CodeSegment", ptr %8, i64 %11, i32 1
  %13 = load i64, ptr %12, align 8, !tbaa !18
  %.not34 = icmp ugt i64 %13, %1
  %..031 = select i1 %.not34, i32 %10, i32 %.03135
  %.029. = select i1 %.not34, i32 %.02936, i32 %10
  %14 = add nuw nsw i32 %.029., 1
  %15 = icmp samesign ult i32 %14, %..031
  br i1 %15, label %.lr.ph, label %._crit_edge.loopexit, !llvm.loop !27

._crit_edge.loopexit:                             ; preds = %.lr.ph
  %16 = zext nneg i32 %.029. to i64
  br label %._crit_edge

._crit_edge:                                      ; preds = %3, %._crit_edge.loopexit
  %.029.lcssa = phi i64 [ %16, %._crit_edge.loopexit ], [ 0, %3 ]
  %17 = getelementptr inbounds nuw %"struct.faiss::ZnSphereCodec::CodeSegment", ptr %8, i64 %.029.lcssa
  %18 = getelementptr inbounds nuw i8, ptr %17, i64 32
  %19 = load i64, ptr %18, align 8, !tbaa !18
  %20 = sub i64 %1, %19
  %21 = getelementptr inbounds nuw i8, ptr %17, i64 40
  %22 = load i32, ptr %21, align 8, !tbaa !29
  %23 = zext nneg i32 %22 to i64
  %24 = lshr i64 %20, %23
  tail call void @_ZNK5faiss7Repeats6decodeEmPf(ptr noundef nonnull align 8 dereferenceable(32) %17, i64 noundef %24, ptr noundef %2)
  %25 = getelementptr inbounds nuw i8, ptr %0, i64 16
  %26 = load i32, ptr %25, align 8, !tbaa !30
  %27 = icmp sgt i32 %26, 0
  br i1 %27, label %.lr.ph40.preheader, label %._crit_edge41

.lr.ph40.preheader:                               ; preds = %._crit_edge
  %wide.trip.count = zext nneg i32 %26 to i64
  br label %.lr.ph40

._crit_edge41:                                    ; preds = %39, %._crit_edge
  ret void

.lr.ph40:                                         ; preds = %.lr.ph40.preheader, %39
  %indvars.iv = phi i64 [ 0, %.lr.ph40.preheader ], [ %indvars.iv.next, %39 ]
  %.02837 = phi i32 [ 0, %.lr.ph40.preheader ], [ %.1, %39 ]
  %28 = getelementptr inbounds nuw float, ptr %2, i64 %indvars.iv
  %29 = load float, ptr %28, align 4, !tbaa !32
  %30 = fcmp une float %29, 0.000000e+00
  br i1 %30, label %31, label %39

31:                                               ; preds = %.lr.ph40
  %32 = zext nneg i32 %.02837 to i64
  %33 = shl nuw i64 1, %32
  %34 = and i64 %33, %20
  %.not = icmp eq i64 %34, 0
  br i1 %.not, label %37, label %35

35:                                               ; preds = %31
  %36 = fneg float %29
  store float %36, ptr %28, align 4, !tbaa !32
  br label %37

37:                                               ; preds = %35, %31
  %38 = add nsw i32 %.02837, 1
  br label %39

39:                                               ; preds = %.lr.ph40, %37
  %.1 = phi i32 [ %38, %37 ], [ %.02837, %.lr.ph40 ]
  %indvars.iv.next = add nuw nsw i64 %indvars.iv, 1
  %exitcond.not = icmp eq i64 %indvars.iv.next, %wide.trip.count
  br i1 %exitcond.not, label %._crit_edge41, label %.lr.ph40, !llvm.loop !34
}